ARM GAS  C:\Users\tommy\AppData\Local\Temp\cc564X6l.s 			page 1


   1              		.cpu cortex-m4
   2              		.arch armv7e-m
   3              		.fpu fpv4-sp-d16
   4              		.eabi_attribute 27, 1
   5              		.eabi_attribute 28, 1
   6              		.eabi_attribute 20, 1
   7              		.eabi_attribute 21, 1
   8              		.eabi_attribute 23, 3
   9              		.eabi_attribute 24, 1
  10              		.eabi_attribute 25, 1
  11              		.eabi_attribute 26, 1
  12              		.eabi_attribute 30, 1
  13              		.eabi_attribute 34, 1
  14              		.eabi_attribute 18, 4
  15              		.file	"main.cpp"
  16              		.text
  17              	.Ltext0:
  18              		.cfi_sections	.debug_frame
  19              		.section	.text._Z5delaym,"ax",%progbits
  20              		.align	1
  21              		.global	_Z5delaym
  22              		.syntax unified
  23              		.thumb
  24              		.thumb_func
  26              	_Z5delaym:
  27              		.fnstart
  28              	.LVL0:
  29              	.LFB134:
  30              		.file 1 "Core/Src/main.cpp"
   1:Core/Src/main.cpp ****  /** 
   2:Core/Src/main.cpp ****   * @file           : main.cpp
   3:Core/Src/main.cpp ****   * @brief          : Main program body
   4:Core/Src/main.cpp ****   ******************************************************************************
   5:Core/Src/main.cpp ****   * @attention
   6:Core/Src/main.cpp ****   */
   7:Core/Src/main.cpp **** 
   8:Core/Src/main.cpp **** #include <Peripheral_initialization.h>
   9:Core/Src/main.cpp **** 
  10:Core/Src/main.cpp **** void delay (volatile uint32_t clockticks){
  31              		.loc 1 10 42 view -0
  32              		.cfi_startproc
  33              		@ args = 0, pretend = 0, frame = 8
  34              		@ frame_needed = 0, uses_anonymous_args = 0
  35              		@ link register save eliminated.
  36              		.loc 1 10 42 is_stmt 0 view .LVU1
  37 0000 82B0     		sub	sp, sp, #8
  38              	.LCFI0:
  39              		.cfi_def_cfa_offset 8
  40 0002 0190     		str	r0, [sp, #4]
  41              	.L2:
  11:Core/Src/main.cpp ****   while (clockticks--);
  42              		.loc 1 11 3 is_stmt 1 view .LVU2
  43              		.loc 1 11 20 view .LVU3
  44 0004 019B     		ldr	r3, [sp, #4]
  45 0006 5A1E     		subs	r2, r3, #1
  46 0008 0192     		str	r2, [sp, #4]
  47 000a 002B     		cmp	r3, #0
ARM GAS  C:\Users\tommy\AppData\Local\Temp\cc564X6l.s 			page 2


  48 000c FAD1     		bne	.L2
  12:Core/Src/main.cpp **** }
  49              		.loc 1 12 1 is_stmt 0 view .LVU4
  50 000e 02B0     		add	sp, sp, #8
  51              	.LCFI1:
  52              		.cfi_def_cfa_offset 0
  53              		@ sp needed
  54 0010 7047     		bx	lr
  55              		.cfi_endproc
  56              	.LFE134:
  57              		.cantunwind
  58              		.fnend
  60              		.section	.text._Z2onv,"ax",%progbits
  61              		.align	1
  62              		.global	_Z2onv
  63              		.syntax unified
  64              		.thumb
  65              		.thumb_func
  67              	_Z2onv:
  68              		.fnstart
  69              	.LFB135:
  13:Core/Src/main.cpp **** 
  14:Core/Src/main.cpp **** void on(){
  70              		.loc 1 14 10 is_stmt 1 view -0
  71              		.cfi_startproc
  72              		@ args = 0, pretend = 0, frame = 0
  73              		@ frame_needed = 0, uses_anonymous_args = 0
  74              		@ link register save eliminated.
  15:Core/Src/main.cpp ****   GPIOC -> BSRR = (1U << 13);
  75              		.loc 1 15 3 view .LVU6
  76              		.loc 1 15 17 is_stmt 0 view .LVU7
  77 0000 024B     		ldr	r3, .L5
  78 0002 4FF40052 		mov	r2, #8192
  79 0006 9A61     		str	r2, [r3, #24]
  16:Core/Src/main.cpp **** 
  17:Core/Src/main.cpp **** }
  80              		.loc 1 17 1 view .LVU8
  81 0008 7047     		bx	lr
  82              	.L6:
  83 000a 00BF     		.align	2
  84              	.L5:
  85 000c 00080240 		.word	1073874944
  86              		.cfi_endproc
  87              	.LFE135:
  88              		.cantunwind
  89              		.fnend
  91              		.section	.text._Z3offv,"ax",%progbits
  92              		.align	1
  93              		.global	_Z3offv
  94              		.syntax unified
  95              		.thumb
  96              		.thumb_func
  98              	_Z3offv:
  99              		.fnstart
 100              	.LFB136:
  18:Core/Src/main.cpp **** void off(){
 101              		.loc 1 18 11 is_stmt 1 view -0
ARM GAS  C:\Users\tommy\AppData\Local\Temp\cc564X6l.s 			page 3


 102              		.cfi_startproc
 103              		@ args = 0, pretend = 0, frame = 0
 104              		@ frame_needed = 0, uses_anonymous_args = 0
 105              		@ link register save eliminated.
  19:Core/Src/main.cpp ****   GPIOC -> BSRR = ((1U << 13) << 16);
 106              		.loc 1 19 3 view .LVU10
 107              		.loc 1 19 17 is_stmt 0 view .LVU11
 108 0000 024B     		ldr	r3, .L8
 109 0002 4FF00052 		mov	r2, #536870912
 110 0006 9A61     		str	r2, [r3, #24]
  20:Core/Src/main.cpp **** 
  21:Core/Src/main.cpp **** }
 111              		.loc 1 21 1 view .LVU12
 112 0008 7047     		bx	lr
 113              	.L9:
 114 000a 00BF     		.align	2
 115              	.L8:
 116 000c 00080240 		.word	1073874944
 117              		.cfi_endproc
 118              	.LFE136:
 119              		.cantunwind
 120              		.fnend
 122              		.section	.text.main,"ax",%progbits
 123              		.align	1
 124              		.global	main
 125              		.syntax unified
 126              		.thumb
 127              		.thumb_func
 129              	main:
 130              		.fnstart
 131              	.LFB137:
  22:Core/Src/main.cpp **** 
  23:Core/Src/main.cpp **** 
  24:Core/Src/main.cpp **** int main(){
 132              		.loc 1 24 11 is_stmt 1 view -0
 133              		.cfi_startproc
 134              		@ args = 0, pretend = 0, frame = 0
 135              		@ frame_needed = 0, uses_anonymous_args = 0
 136 0000 10B5     		push	{r4, lr}
 137              		.save {r4, lr}
 138              	.LCFI2:
 139              		.cfi_def_cfa_offset 8
 140              		.cfi_offset 4, -8
 141              		.cfi_offset 14, -4
  25:Core/Src/main.cpp **** 
  26:Core/Src/main.cpp ****   RCC_Enable_HSE();
 142              		.loc 1 26 3 view .LVU14
 143              		.loc 1 26 17 is_stmt 0 view .LVU15
 144 0002 FFF7FEFF 		bl	RCC_Enable_HSE
 145              	.LVL1:
  27:Core/Src/main.cpp ****   GPIO_Setup();
 146              		.loc 1 27 3 is_stmt 1 view .LVU16
 147              		.loc 1 27 13 is_stmt 0 view .LVU17
 148 0006 FFF7FEFF 		bl	GPIO_Setup
 149              	.LVL2:
 150              	.L11:
  28:Core/Src/main.cpp ****     while (1){
ARM GAS  C:\Users\tommy\AppData\Local\Temp\cc564X6l.s 			page 4


 151              		.loc 1 28 5 is_stmt 1 discriminator 1 view .LVU18
  29:Core/Src/main.cpp ****       on();
 152              		.loc 1 29 7 discriminator 1 view .LVU19
 153              		.loc 1 29 9 is_stmt 0 discriminator 1 view .LVU20
 154 000a FFF7FEFF 		bl	_Z2onv
 155              	.LVL3:
  30:Core/Src/main.cpp ****       delay(10000000);
 156              		.loc 1 30 7 is_stmt 1 discriminator 1 view .LVU21
 157              		.loc 1 30 12 is_stmt 0 discriminator 1 view .LVU22
 158 000e 054C     		ldr	r4, .L13
 159 0010 2046     		mov	r0, r4
 160 0012 FFF7FEFF 		bl	_Z5delaym
 161              	.LVL4:
  31:Core/Src/main.cpp ****       off();
 162              		.loc 1 31 7 is_stmt 1 discriminator 1 view .LVU23
 163              		.loc 1 31 10 is_stmt 0 discriminator 1 view .LVU24
 164 0016 FFF7FEFF 		bl	_Z3offv
 165              	.LVL5:
  32:Core/Src/main.cpp ****       delay(10000000);
 166              		.loc 1 32 7 is_stmt 1 discriminator 1 view .LVU25
 167              		.loc 1 32 12 is_stmt 0 discriminator 1 view .LVU26
 168 001a 2046     		mov	r0, r4
 169 001c FFF7FEFF 		bl	_Z5delaym
 170              	.LVL6:
  28:Core/Src/main.cpp ****       on();
 171              		.loc 1 28 5 is_stmt 1 discriminator 1 view .LVU27
 172 0020 F3E7     		b	.L11
 173              	.L14:
 174 0022 00BF     		.align	2
 175              	.L13:
 176 0024 80969800 		.word	10000000
 177              		.cfi_endproc
 178              	.LFE137:
 179              		.fnend
 181              		.text
 182              	.Letext0:
 183              		.file 2 "c:\\users\\tommy\\documents\\bike stmproj\\tools\\gcc-arm-none-eabi-10.3-2021.10\\arm-non
 184              		.file 3 "c:\\users\\tommy\\documents\\bike stmproj\\tools\\gcc-arm-none-eabi-10.3-2021.10\\arm-non
 185              		.file 4 "Drivers/CMSIS/Device/ST/STM32F4xx/Include/stm32f411xe.h"
 186              		.file 5 "Core/Inc/Peripheral_initialization.h"
ARM GAS  C:\Users\tommy\AppData\Local\Temp\cc564X6l.s 			page 5

